; Function Attrs: mustprogress nofree norecurse nosync nounwind willreturn memory(read, inaccessiblemem: none) uwtable
define hidden noundef i32 @_ZN11Instruction15dominator_depthEv(ptr nocapture noundef nonnull readonly align 8 dereferenceable(96) %0) local_unnamed_addr #0 align 2 {
  %2 = getelementptr inbounds i8, ptr %0, i64 88
  %3 = load ptr, ptr %2, align 8
  %.not = icmp eq ptr %3, null
  br i1 %.not, label %7, label %4

4:                                                ; preds = %1
  %5 = getelementptr inbounds i8, ptr %3, i64 120
  %6 = load i32, ptr %5, align 8
  br label %7

7:                                                ; preds = %4, %1
  %.0 = phi i32 [ %6, %4 ], [ -1, %1 ]
  ret i32 %.0
}